; ModuleID = 'source-C-CXX/44/1391.c'
source_filename = "source-C-CXX/44/1391.c"
target datalayout = "e-m:e-p270:32:32-p271:32:32-p272:64:64-i64:64-f80:128-n8:16:32:64-S128"
target triple = "x86_64-pc-linux-gnu"

@.str = private unnamed_addr constant [3 x i8] c"%s\00", align 1
@.str.1 = private unnamed_addr constant [3 x i8] c"%d\00", align 1

; Function Attrs: nofree nounwind sspstrong uwtable
define dso_local i32 @main() local_unnamed_addr #0 {
  %1 = alloca [50 x i8], align 16
  %2 = alloca [50 x i8], align 16
  %3 = getelementptr inbounds [50 x i8], [50 x i8]* %1, i64 0, i64 0
  call void @llvm.lifetime.start.p0i8(i64 50, i8* nonnull %3) #4
  %4 = getelementptr inbounds [50 x i8], [50 x i8]* %2, i64 0, i64 0
  call void @llvm.lifetime.start.p0i8(i64 50, i8* nonnull %4) #4
  %5 = call i32 (i8*, ...) @__isoc99_scanf(i8* getelementptr inbounds ([3 x i8], [3 x i8]* @.str, i64 0, i64 0), i8* nonnull %3)
  %6 = call i32 (i8*, ...) @__isoc99_scanf(i8* getelementptr inbounds ([3 x i8], [3 x i8]* @.str, i64 0, i64 0), i8* nonnull %4)
  %7 = call i64 @strlen(i8* noundef nonnull %3) #5
  %8 = trunc i64 %7 to i32
  %9 = call i64 @strlen(i8* noundef nonnull %4) #5
  %10 = trunc i64 %9 to i32
  %11 = sub nsw i32 %10, %8
  %12 = icmp sgt i32 %11, 0
  %13 = icmp sgt i32 %8, 0
  %14 = and i1 %12, %13
  br i1 %14, label %15, label %43

15:                                               ; preds = %0
  %16 = load i8, i8* %3, align 16, !tbaa !5
  %17 = zext i32 %11 to i64
  br label %18

18:                                               ; preds = %39, %15
  %19 = phi i64 [ %41, %39 ], [ 0, %15 ]
  %20 = phi i32 [ %40, %39 ], [ 0, %15 ]
  %21 = getelementptr inbounds [50 x i8], [50 x i8]* %2, i64 0, i64 %19
  %22 = load i8, i8* %21, align 1, !tbaa !5
  %23 = icmp eq i8 %16, %22
  br i1 %23, label %24, label %39

24:                                               ; preds = %18
  %25 = and i64 %7, 4294967295
  br label %26

26:                                               ; preds = %24, %29
  %27 = phi i64 [ 1, %24 ], [ %36, %29 ]
  %28 = icmp eq i64 %27, %25
  br i1 %28, label %43, label %29, !llvm.loop !8

29:                                               ; preds = %26
  %30 = getelementptr inbounds [50 x i8], [50 x i8]* %1, i64 0, i64 %27
  %31 = load i8, i8* %30, align 1, !tbaa !5
  %32 = add nuw nsw i64 %27, %19
  %33 = getelementptr inbounds [50 x i8], [50 x i8]* %2, i64 0, i64 %32
  %34 = load i8, i8* %33, align 1, !tbaa !5
  %35 = icmp eq i8 %31, %34
  %36 = add nuw nsw i64 %27, 1
  br i1 %35, label %26, label %37, !llvm.loop !8

37:                                               ; preds = %29
  %38 = add nuw nsw i32 %20, 1
  br label %43

39:                                               ; preds = %18
  %40 = add nuw nsw i32 %20, 1
  %41 = add nuw nsw i64 %19, 1
  %42 = icmp ult i64 %41, %17
  br i1 %42, label %18, label %43, !llvm.loop !10

43:                                               ; preds = %39, %26, %37, %0
  %44 = phi i32 [ 0, %0 ], [ %38, %37 ], [ %20, %26 ], [ %40, %39 ]
  %45 = call i32 (i8*, ...) @printf(i8* nonnull dereferenceable(1) getelementptr inbounds ([3 x i8], [3 x i8]* @.str.1, i64 0, i64 0), i32 %44)
  call void @llvm.lifetime.end.p0i8(i64 50, i8* nonnull %4) #4
  call void @llvm.lifetime.end.p0i8(i64 50, i8* nonnull %3) #4
  ret i32 0
}

; Function Attrs: argmemonly mustprogress nofree nosync nounwind willreturn
declare void @llvm.lifetime.start.p0i8(i64 immarg, i8* nocapture) #1

; Function Attrs: nofree nounwind
declare noundef i32 @__isoc99_scanf(i8* nocapture noundef readonly, ...) local_unnamed_addr #2

; Function Attrs: argmemonly mustprogress nofree nounwind readonly willreturn
declare i64 @strlen(i8* nocapture) local_unnamed_addr #3

; Function Attrs: nofree nounwind
declare noundef i32 @printf(i8* nocapture noundef readonly, ...) local_unnamed_addr #2

; Function Attrs: argmemonly mustprogress nofree nosync nounwind willreturn
declare void @llvm.lifetime.end.p0i8(i64 immarg, i8* nocapture) #1


!llvm.module.flags = !{!0, !1, !2, !3}
!llvm.ident = !{!4}

!0 = !{i32 1, !"wchar_size", i32 4}
!1 = !{i32 7, !"PIC Level", i32 2}
!2 = !{i32 7, !"PIE Level", i32 2}
!3 = !{i32 7, !"uwtable", i32 1}
!4 = !{!"clang version 13.0.0"}
!5 = !{!6, !6, i64 0}
!6 = !{!"omnipotent char", !7, i64 0}
!7 = !{!"Simple C/C++ TBAA"}
!8 = distinct !{!8, !9}
!9 = !{!"llvm.loop.mustprogress"}
!10 = distinct !{!10, !9}
